target datalayout = "e-m:e-p270:32:32-p271:32:32-p272:64:64-i64:64-i128:128-f80:128-n8:16:32:64-S128"
target triple = "x86_64-pc-linux-gnu"

%struct._packet_info = type { ptr, ptr, i32, i32, %struct.nstime_t, %struct.nstime_t, %struct.nstime_t, i8, ptr, ptr, ptr, ptr, %struct._address, %struct._address, %struct._address, %struct._address, %struct._address, %struct._address, i32, ptr, i8, [3 x i8], %struct.anon, i32, i32, i32, i32, ptr, i8, ptr, ptr, i16, i16, i32, i32, i16, i32, i32, ptr, ptr, ptr, i8, i8, i16, i16, i16, i32, i16, i16, ptr, ptr, ptr, ptr, ptr, i32, i32 }
%struct.nstime_t = type { i64, i32 }
%struct._address = type { i32, i32, ptr, ptr }
%struct.anon = type { i8, [3 x i8] }

@.str.691 = private unnamed_addr constant [38 x i8] c"%s (wrong length, should be 21, is %d\00", align 1
@.str.692 = private unnamed_addr constant [29 x i8] c"<Bytes go past end of frame>\00", align 1

; Function Attrs: null_pointer_is_valid sspstrong uwtable
define internal i32 @add_logon_hours(ptr noundef %0, i32 noundef %1, i32 noundef %2, ptr noundef %3, ptr noundef %4, i32 noundef %5, i32 noundef %6, ptr noundef %7) #0 {
  %9 = alloca ptr, align 8
  %10 = alloca i32, align 4
  %11 = alloca i32, align 4
  %12 = alloca ptr, align 8
  %13 = alloca ptr, align 8
  %14 = alloca i32, align 4
  %15 = alloca i32, align 4
  %16 = alloca ptr, align 8
  %17 = alloca i32, align 4
  store ptr %0, ptr %9, align 8
  store i32 %1, ptr %10, align 4
  store i32 %2, ptr %11, align 4
  store ptr %3, ptr %12, align 8
  store ptr %4, ptr %13, align 8
  store i32 %5, ptr %14, align 4
  store i32 %6, ptr %15, align 4
  store ptr %7, ptr %16, align 8
  call void @llvm.lifetime.start.p0(i64 4, ptr %17) #7
  %18 = load ptr, ptr %9, align 8
  %19 = load i32, ptr %10, align 4
  %20 = call i32 @tvb_get_letohl(ptr noundef %18, i32 noundef %19)
  %21 = and i32 %20, 65535
  %22 = load i32, ptr %14, align 4
  %23 = sub i32 %21, %22
  store i32 %23, ptr %17, align 4
  %24 = load i32, ptr %10, align 4
  %25 = add i32 %24, 4
  store i32 %25, ptr %10, align 4
  %26 = load ptr, ptr %9, align 8
  %27 = load i32, ptr %17, align 4
  %28 = load i32, ptr %11, align 4
  %29 = call zeroext i1 @tvb_bytes_exist(ptr noundef %26, i32 noundef %27, i32 noundef %28)
  br i1 %29, label %30, label %56

30:                                               ; preds = %8
  %31 = load i32, ptr %11, align 4
  %32 = icmp eq i32 %31, 21
  br i1 %32, label %33, label %40

33:                                               ; preds = %30
  %34 = load ptr, ptr %13, align 8
  %35 = load i32, ptr %15, align 4
  %36 = load ptr, ptr %9, align 8
  %37 = load i32, ptr %17, align 4
  %38 = load i32, ptr %11, align 4
  %39 = call ptr @proto_tree_add_item(ptr noundef %34, i32 noundef %35, ptr noundef %36, i32 noundef %37, i32 noundef %38, i32 noundef 0)
  br label %55

40:                                               ; preds = %30
  %41 = load ptr, ptr %13, align 8
  %42 = load i32, ptr %15, align 4
  %43 = load ptr, ptr %9, align 8
  %44 = load i32, ptr %17, align 4
  %45 = load i32, ptr %11, align 4
  %46 = load ptr, ptr %12, align 8
  %47 = getelementptr inbounds nuw %struct._packet_info, ptr %46, i32 0, i32 51
  %48 = load ptr, ptr %47, align 8
  %49 = load ptr, ptr %9, align 8
  %50 = load i32, ptr %17, align 4
  %51 = load i32, ptr %11, align 4
  %52 = call ptr @tvb_bytes_to_str(ptr noundef %48, ptr noundef %49, i32 noundef %50, i32 noundef %51)
  %53 = load i32, ptr %11, align 4
  %54 = call ptr (ptr, i32, ptr, i32, i32, ptr, ptr, ...) @proto_tree_add_bytes_format_value(ptr noundef %41, i32 noundef %42, ptr noundef %43, i32 noundef %44, i32 noundef %45, ptr noundef null, ptr noundef @.str.691, ptr noundef %52, i32 noundef %53)
  br label %55

55:                                               ; preds = %40, %33
  br label %61

56:                                               ; preds = %8
  %57 = load ptr, ptr %13, align 8
  %58 = load i32, ptr %15, align 4
  %59 = load ptr, ptr %9, align 8
  %60 = call ptr (ptr, i32, ptr, i32, i32, ptr, ptr, ...) @proto_tree_add_bytes_format_value(ptr noundef %57, i32 noundef %58, ptr noundef %59, i32 noundef 0, i32 noundef 0, ptr noundef null, ptr noundef @.str.692)
  br label %61

61:                                               ; preds = %56, %55
  %62 = load i32, ptr %10, align 4
  call void @llvm.lifetime.end.p0(i64 4, ptr %17) #7
  ret i32 %62
}