; Function Attrs: null_pointer_is_valid sspstrong uwtable
define internal noundef i32 @add_logon_hours(ptr noundef %0, i32 noundef %1, i32 noundef %2, ptr noundef readonly captures(none) %3, ptr noundef %4, i32 noundef %5, i32 noundef %6, ptr readnone captures(none) %7) #0 {
  %9 = tail call i32 @tvb_get_letohl(ptr noundef %0, i32 noundef %1)
  %10 = and i32 %9, 65535
  %11 = sub i32 %10, %5
  %12 = tail call zeroext i1 @tvb_bytes_exist(ptr noundef %0, i32 noundef %11, i32 noundef %2)
  br i1 %12, label %13, label %22

13:                                               ; preds = %8
  %14 = icmp eq i32 %2, 21
  br i1 %14, label %15, label %17

15:                                               ; preds = %13
  %16 = tail call ptr @proto_tree_add_item(ptr noundef %4, i32 noundef %6, ptr noundef %0, i32 noundef %11, i32 noundef 21, i32 noundef 0)
  br label %24

17:                                               ; preds = %13
  %18 = getelementptr inbounds nuw i8, ptr %3, i64 408
  %19 = load ptr, ptr %18, align 8
  %20 = tail call ptr @tvb_bytes_to_str(ptr noundef %19, ptr noundef %0, i32 noundef %11, i32 noundef %2)
  %21 = tail call ptr (ptr, i32, ptr, i32, i32, ptr, ptr, ...) @proto_tree_add_bytes_format_value(ptr noundef %4, i32 noundef %6, ptr noundef %0, i32 noundef %11, i32 noundef %2, ptr noundef null, ptr noundef nonnull @.str.691, ptr noundef %20, i32 noundef %2)
  br label %24

22:                                               ; preds = %8
  %23 = tail call ptr (ptr, i32, ptr, i32, i32, ptr, ptr, ...) @proto_tree_add_bytes_format_value(ptr noundef %4, i32 noundef %6, ptr noundef %0, i32 noundef 0, i32 noundef 0, ptr noundef null, ptr noundef nonnull @.str.692)
  br label %24

24:                                               ; preds = %15, %17, %22
  %25 = add i32 %1, 4
  ret i32 %25
}